; Function Attrs: mustprogress uwtable
define noundef ptr @_ZN7rocksdb24PessimisticTransactionDB20GetTransactionByNameERKNSt7__cxx1112basic_stringIcSt11char_traitsIcESaIcEEE(ptr noundef nonnull align 8 dereferenceable(520) %0, ptr noundef nonnull align 8 dereferenceable(32) %1) unnamed_addr #4 align 2 personality ptr @__gxx_personality_v0 {
  %3 = getelementptr inbounds nuw i8, ptr %0, i64 424
  %4 = tail call noundef i32 @pthread_mutex_lock(ptr noundef nonnull align 8 dereferenceable(40) %3) #28
  %.not.i.i = icmp eq i32 %4, 0
  br i1 %.not.i.i, label %_ZNSt10lock_guardISt5mutexEC2ERS0_.exit, label %5

5:                                                ; preds = %2
  tail call void @_ZSt20__throw_system_errori(i32 noundef %4) #30
  unreachable

_ZNSt10lock_guardISt5mutexEC2ERS0_.exit:          ; preds = %2
  %6 = getelementptr inbounds nuw i8, ptr %0, i64 464
  %7 = invoke ptr @_ZNSt10_HashtableINSt7__cxx1112basic_stringIcSt11char_traitsIcESaIcEEESt4pairIKS5_PN7rocksdb11TransactionEESaISB_ENSt8__detail10_Select1stESt8equal_toIS5_ESt4hashIS5_ENSD_18_Mod_range_hashingENSD_20_Default_ranged_hashENSD_20_Prime_rehash_policyENSD_17_Hashtable_traitsILb1ELb0ELb1EEEE4findERS7_(ptr noundef nonnull align 8 dereferenceable(56) %6, ptr noundef nonnull align 8 dereferenceable(32) %1)
          to label %.noexc unwind label %13

.noexc:                                           ; preds = %_ZNSt10lock_guardISt5mutexEC2ERS0_.exit
  %8 = icmp eq ptr %7, null
  br i1 %8, label %_ZN7rocksdb24PessimisticTransactionDB26GetTransactionByNameLockedERKNSt7__cxx1112basic_stringIcSt11char_traitsIcESaIcEEE.exit, label %9

9:                                                ; preds = %.noexc
  %10 = getelementptr inbounds nuw i8, ptr %7, i64 40
  %11 = load ptr, ptr %10, align 8, !tbaa !515
  br label %_ZN7rocksdb24PessimisticTransactionDB26GetTransactionByNameLockedERKNSt7__cxx1112basic_stringIcSt11char_traitsIcESaIcEEE.exit

_ZN7rocksdb24PessimisticTransactionDB26GetTransactionByNameLockedERKNSt7__cxx1112basic_stringIcSt11char_traitsIcESaIcEEE.exit: ; preds = %9, %.noexc
  %.0.i = phi ptr [ %11, %9 ], [ null, %.noexc ]
  %12 = tail call noundef i32 @pthread_mutex_unlock(ptr noundef nonnull align 8 dereferenceable(40) %3) #28
  ret ptr %.0.i

13:                                               ; preds = %_ZNSt10lock_guardISt5mutexEC2ERS0_.exit
  %14 = landingpad { ptr, i32 }
          cleanup
  %15 = tail call noundef i32 @pthread_mutex_unlock(ptr noundef nonnull align 8 dereferenceable(40) %3) #28
  resume { ptr, i32 } %14
}